target datalayout = "e-m:e-p270:32:32-p271:32:32-p272:64:64-i64:64-i128:128-f80:128-n8:16:32:64-S128"
target triple = "x86_64-pc-linux-gnu"

%"class.datalog::relation_manager" = type { ptr, ptr, %class.ptr_vector, %class.ptr_vector.0, %class.map, %class.map.2, %class.u_map, ptr, ptr, %class.obj_map, %class.obj_hashtable, i32, i32, %class.obj_map.17 }
%class.ptr_vector = type { %class.vector }
%class.vector = type { ptr }
%class.ptr_vector.0 = type { %class.vector.1 }
%class.vector.1 = type { ptr }
%class.map = type { %class.table2map }
%class.table2map = type { %class.core_hashtable }
%class.core_hashtable = type <{ ptr, i32, i32, i32, [4 x i8] }>
%class.map.2 = type { %class.table2map.3 }
%class.table2map.3 = type { %class.core_hashtable.4 }
%class.core_hashtable.4 = type <{ ptr, i32, i32, i32, [4 x i8] }>
%class.u_map = type { %class.map.8 }
%class.map.8 = type { %class.table2map.9 }
%class.table2map.9 = type { %class.core_hashtable.10 }
%class.core_hashtable.10 = type <{ ptr, i32, i32, i32, [4 x i8] }>
%class.obj_map = type { %class.core_hashtable.12 }
%class.core_hashtable.12 = type <{ ptr, i32, i32, i32, [4 x i8] }>
%class.obj_hashtable = type { %class.core_hashtable.base.16, [4 x i8] }
%class.core_hashtable.base.16 = type <{ ptr, i32, i32, i32 }>
%class.obj_map.17 = type { %class.core_hashtable.18 }
%class.core_hashtable.18 = type <{ ptr, i32, i32, i32, [4 x i8] }>
%"struct.obj_map<func_decl, int>::key_data" = type <{ ptr, i32, [4 x i8] }>
%class.ast = type { i32, i32, i32, i32 }
%"class.obj_map<func_decl, int>::obj_map_entry" = type { %"struct.obj_map<func_decl, int>::key_data" }

; Function Attrs: mustprogress nounwind uwtable
define linkonce_odr hidden noundef zeroext i1 @_ZNK7obj_mapI9func_decliE8key_dataeqERKS2_(ptr noundef nonnull align 8 dereferenceable(12) %0, ptr noundef nonnull align 8 dereferenceable(12) %1) #4 comdat align 2 {
  %3 = alloca ptr, align 8
  %4 = alloca ptr, align 8
  store ptr %0, ptr %3, align 8, !tbaa !1024
  store ptr %1, ptr %4, align 8, !tbaa !1024
  %5 = load ptr, ptr %3, align 8
  %6 = getelementptr inbounds nuw %"struct.obj_map<func_decl, int>::key_data", ptr %5, i32 0, i32 0
  %7 = load ptr, ptr %6, align 8, !tbaa !1030
  %8 = load ptr, ptr %4, align 8, !tbaa !1024
  %9 = getelementptr inbounds nuw %"struct.obj_map<func_decl, int>::key_data", ptr %8, i32 0, i32 0
  %10 = load ptr, ptr %9, align 8, !tbaa !1030
  %11 = icmp eq ptr %7, %10
  ret i1 %11
}

; Function Attrs: mustprogress nounwind uwtable
define linkonce_odr hidden noundef i32 @_ZNK3ast4hashEv(ptr noundef nonnull align 4 dereferenceable(16) %0) #4 comdat align 2 {
  %2 = alloca ptr, align 8
  store ptr %0, ptr %2, align 8, !tbaa !270
  %3 = load ptr, ptr %2, align 8
  %4 = getelementptr inbounds nuw %class.ast, ptr %3, i32 0, i32 3
  %5 = load i32, ptr %4, align 4, !tbaa !983
  ret i32 %5
}

; Function Attrs: mustprogress uwtable
define linkonce_odr hidden noundef zeroext i1 @_ZNK10default_eqIN7obj_mapI9func_decliE8key_dataEEclERKS3_S6_(ptr noundef nonnull align 1 dereferenceable(1) %0, ptr noundef nonnull align 8 dereferenceable(12) %1, ptr noundef nonnull align 8 dereferenceable(12) %2) #5 comdat align 2 {
  %4 = alloca ptr, align 8
  %5 = alloca ptr, align 8
  %6 = alloca ptr, align 8
  store ptr %0, ptr %4, align 8, !tbaa !1040
  store ptr %1, ptr %5, align 8, !tbaa !1024
  store ptr %2, ptr %6, align 8, !tbaa !1024
  %7 = load ptr, ptr %5, align 8, !tbaa !1024
  %8 = load ptr, ptr %6, align 8, !tbaa !1024
  %9 = call noundef zeroext i1 @_ZNK7obj_mapI9func_decliE8key_dataeqERKS2_(ptr noundef nonnull align 8 dereferenceable(12) %7, ptr noundef nonnull align 8 dereferenceable(12) %8)
  ret i1 %9
}

; Function Attrs: mustprogress nounwind uwtable
define linkonce_odr hidden noundef i32 @_ZNK7obj_mapI9func_decliE8key_data4hashEv(ptr noundef nonnull align 8 dereferenceable(12) %0) #4 comdat align 2 {
  %2 = alloca ptr, align 8
  store ptr %0, ptr %2, align 8, !tbaa !1024
  %3 = load ptr, ptr %2, align 8
  %4 = getelementptr inbounds nuw %"struct.obj_map<func_decl, int>::key_data", ptr %3, i32 0, i32 0
  %5 = load ptr, ptr %4, align 8, !tbaa !1030
  %6 = call noundef i32 @_ZNK3ast4hashEv(ptr noundef nonnull align 4 dereferenceable(16) %5)
  ret i32 %6
}

; Function Attrs: mustprogress uwtable
define linkonce_odr hidden noundef i32 @_ZNK8obj_hashIN7obj_mapI9func_decliE8key_dataEEclERKS3_(ptr noundef nonnull align 1 dereferenceable(1) %0, ptr noundef nonnull align 8 dereferenceable(12) %1) #5 comdat align 2 {
  %3 = alloca ptr, align 8
  %4 = alloca ptr, align 8
  store ptr %0, ptr %3, align 8, !tbaa !1038
  store ptr %1, ptr %4, align 8, !tbaa !1024
  %5 = load ptr, ptr %4, align 8, !tbaa !1024
  %6 = call noundef i32 @_ZNK7obj_mapI9func_decliE8key_data4hashEv(ptr noundef nonnull align 8 dereferenceable(12) %5)
  ret i32 %6
}

; Function Attrs: mustprogress nounwind uwtable
define linkonce_odr hidden noundef zeroext i1 @_ZNK7obj_mapI9func_decliE13obj_map_entry7is_freeEv(ptr noundef nonnull align 8 dereferenceable(16) %0) #4 comdat align 2 {
  %2 = alloca ptr, align 8
  store ptr %0, ptr %2, align 8, !tbaa !290
  %3 = load ptr, ptr %2, align 8
  %4 = getelementptr inbounds nuw %"class.obj_map<func_decl, int>::obj_map_entry", ptr %3, i32 0, i32 0
  %5 = getelementptr inbounds nuw %"struct.obj_map<func_decl, int>::key_data", ptr %4, i32 0, i32 0
  %6 = load ptr, ptr %5, align 8, !tbaa !1031
  %7 = icmp eq ptr %6, null
  ret i1 %7
}

; Function Attrs: mustprogress uwtable
define linkonce_odr hidden noundef zeroext i1 @_ZNK14core_hashtableIN7obj_mapI9func_decliE13obj_map_entryE8obj_hashINS2_8key_dataEE10default_eqIS5_EE6equalsERKS5_SB_(ptr noundef nonnull align 8 dereferenceable(20) %0, ptr noundef nonnull align 8 dereferenceable(12) %1, ptr noundef nonnull align 8 dereferenceable(12) %2) #5 comdat align 2 {
  %4 = alloca ptr, align 8
  %5 = alloca ptr, align 8
  %6 = alloca ptr, align 8
  store ptr %0, ptr %4, align 8, !tbaa !584
  store ptr %1, ptr %5, align 8, !tbaa !1024
  store ptr %2, ptr %6, align 8, !tbaa !1024
  %7 = load ptr, ptr %4, align 8
  %8 = load ptr, ptr %5, align 8, !tbaa !1024
  %9 = load ptr, ptr %6, align 8, !tbaa !1024
  %10 = call noundef zeroext i1 @_ZNK10default_eqIN7obj_mapI9func_decliE8key_dataEEclERKS3_S6_(ptr noundef nonnull align 1 dereferenceable(1) %7, ptr noundef nonnull align 8 dereferenceable(12) %8, ptr noundef nonnull align 8 dereferenceable(12) %9)
  ret i1 %10
}

; Function Attrs: mustprogress nounwind uwtable
define linkonce_odr hidden noundef i32 @_ZNK7obj_mapI9func_decliE13obj_map_entry8get_hashEv(ptr noundef nonnull align 8 dereferenceable(16) %0) #4 comdat align 2 {
  %2 = alloca ptr, align 8
  store ptr %0, ptr %2, align 8, !tbaa !290
  %3 = load ptr, ptr %2, align 8
  %4 = getelementptr inbounds nuw %"class.obj_map<func_decl, int>::obj_map_entry", ptr %3, i32 0, i32 0
  %5 = call noundef i32 @_ZNK7obj_mapI9func_decliE8key_data4hashEv(ptr noundef nonnull align 8 dereferenceable(12) %4)
  ret i32 %5
}

; Function Attrs: mustprogress nounwind uwtable
define linkonce_odr hidden noundef zeroext i1 @_ZNK7obj_mapI9func_decliE13obj_map_entry7is_usedEv(ptr noundef nonnull align 8 dereferenceable(16) %0) #4 comdat align 2 {
  %2 = alloca ptr, align 8
  store ptr %0, ptr %2, align 8, !tbaa !290
  %3 = load ptr, ptr %2, align 8
  %4 = getelementptr inbounds nuw %"class.obj_map<func_decl, int>::obj_map_entry", ptr %3, i32 0, i32 0
  %5 = getelementptr inbounds nuw %"struct.obj_map<func_decl, int>::key_data", ptr %4, i32 0, i32 0
  %6 = load ptr, ptr %5, align 8, !tbaa !1031
  %7 = icmp ne ptr %6, null
  br i1 %7, label %8, label %13

8:                                                ; preds = %1
  %9 = getelementptr inbounds nuw %"class.obj_map<func_decl, int>::obj_map_entry", ptr %3, i32 0, i32 0
  %10 = getelementptr inbounds nuw %"struct.obj_map<func_decl, int>::key_data", ptr %9, i32 0, i32 0
  %11 = load ptr, ptr %10, align 8, !tbaa !1031
  %12 = icmp ne ptr %11, inttoptr (i64 1 to ptr)
  br label %13

13:                                               ; preds = %8, %1
  %14 = phi i1 [ false, %1 ], [ %12, %8 ]
  ret i1 %14
}

; Function Attrs: mustprogress uwtable
define linkonce_odr hidden noundef i32 @_ZNK14core_hashtableIN7obj_mapI9func_decliE13obj_map_entryE8obj_hashINS2_8key_dataEE10default_eqIS5_EE8get_hashERKS5_(ptr noundef nonnull align 8 dereferenceable(20) %0, ptr noundef nonnull align 8 dereferenceable(12) %1) #5 comdat align 2 {
  %3 = alloca ptr, align 8
  %4 = alloca ptr, align 8
  store ptr %0, ptr %3, align 8, !tbaa !584
  store ptr %1, ptr %4, align 8, !tbaa !1024
  %5 = load ptr, ptr %3, align 8
  %6 = load ptr, ptr %4, align 8, !tbaa !1024
  %7 = call noundef i32 @_ZNK8obj_hashIN7obj_mapI9func_decliE8key_dataEEclERKS3_(ptr noundef nonnull align 1 dereferenceable(1) %5, ptr noundef nonnull align 8 dereferenceable(12) %6)
  ret i32 %7
}

; Function Attrs: mustprogress uwtable
define linkonce_odr hidden noundef ptr @_ZNK14core_hashtableIN7obj_mapI9func_decliE13obj_map_entryE8obj_hashINS2_8key_dataEE10default_eqIS5_EE9find_coreERKS5_(ptr noundef nonnull align 8 dereferenceable(20) %0, ptr noundef nonnull align 8 dereferenceable(12) %1) #5 comdat align 2 {
  %3 = alloca ptr, align 8
  %4 = alloca ptr, align 8
  %5 = alloca ptr, align 8
  %6 = alloca i32, align 4
  %7 = alloca i32, align 4
  %8 = alloca i32, align 4
  %9 = alloca ptr, align 8
  %10 = alloca ptr, align 8
  %11 = alloca ptr, align 8
  %12 = alloca i32, align 4
  store ptr %0, ptr %4, align 8, !tbaa !584
  store ptr %1, ptr %5, align 8, !tbaa !1024
  %13 = load ptr, ptr %4, align 8
  call void @llvm.lifetime.start.p0(i64 4, ptr %6) #3
  %14 = load ptr, ptr %5, align 8, !tbaa !1024
  %15 = call noundef i32 @_ZNK14core_hashtableIN7obj_mapI9func_decliE13obj_map_entryE8obj_hashINS2_8key_dataEE10default_eqIS5_EE8get_hashERKS5_(ptr noundef nonnull align 8 dereferenceable(20) %13, ptr noundef nonnull align 8 dereferenceable(12) %14)
  store i32 %15, ptr %6, align 4, !tbaa !279
  call void @llvm.lifetime.start.p0(i64 4, ptr %7) #3
  %16 = getelementptr inbounds nuw %class.core_hashtable.18, ptr %13, i32 0, i32 1
  %17 = load i32, ptr %16, align 8, !tbaa !587
  %18 = sub i32 %17, 1
  store i32 %18, ptr %7, align 4, !tbaa !279
  call void @llvm.lifetime.start.p0(i64 4, ptr %8) #3
  %19 = load i32, ptr %6, align 4, !tbaa !279
  %20 = load i32, ptr %7, align 4, !tbaa !279
  %21 = and i32 %19, %20
  store i32 %21, ptr %8, align 4, !tbaa !279
  call void @llvm.lifetime.start.p0(i64 8, ptr %9) #3
  %22 = getelementptr inbounds nuw %class.core_hashtable.18, ptr %13, i32 0, i32 0
  %23 = load ptr, ptr %22, align 8, !tbaa !586
  %24 = load i32, ptr %8, align 4, !tbaa !279
  %25 = zext i32 %24 to i64
  %26 = getelementptr inbounds nuw %"class.obj_map<func_decl, int>::obj_map_entry", ptr %23, i64 %25
  store ptr %26, ptr %9, align 8, !tbaa !290
  call void @llvm.lifetime.start.p0(i64 8, ptr %10) #3
  %27 = getelementptr inbounds nuw %class.core_hashtable.18, ptr %13, i32 0, i32 0
  %28 = load ptr, ptr %27, align 8, !tbaa !586
  %29 = getelementptr inbounds nuw %class.core_hashtable.18, ptr %13, i32 0, i32 1
  %30 = load i32, ptr %29, align 8, !tbaa !587
  %31 = zext i32 %30 to i64
  %32 = getelementptr inbounds nuw %"class.obj_map<func_decl, int>::obj_map_entry", ptr %28, i64 %31
  store ptr %32, ptr %10, align 8, !tbaa !290
  call void @llvm.lifetime.start.p0(i64 8, ptr %11) #3
  %33 = load ptr, ptr %9, align 8, !tbaa !290
  store ptr %33, ptr %11, align 8, !tbaa !290
  br label %34

34:                                               ; preds = %61, %2
  %35 = load ptr, ptr %11, align 8, !tbaa !290
  %36 = load ptr, ptr %10, align 8, !tbaa !290
  %37 = icmp ne ptr %35, %36
  br i1 %37, label %38, label %64

38:                                               ; preds = %34
  %39 = load ptr, ptr %11, align 8, !tbaa !290
  %40 = call noundef zeroext i1 @_ZNK7obj_mapI9func_decliE13obj_map_entry7is_usedEv(ptr noundef nonnull align 8 dereferenceable(16) %39)
  br i1 %40, label %41, label %54

41:                                               ; preds = %38
  %42 = load ptr, ptr %11, align 8, !tbaa !290
  %43 = call noundef i32 @_ZNK7obj_mapI9func_decliE13obj_map_entry8get_hashEv(ptr noundef nonnull align 8 dereferenceable(16) %42)
  %44 = load i32, ptr %6, align 4, !tbaa !279
  %45 = icmp eq i32 %43, %44
  br i1 %45, label %46, label %53

46:                                               ; preds = %41
  %47 = load ptr, ptr %11, align 8, !tbaa !290
  %48 = call noundef nonnull align 8 dereferenceable(12) ptr @_ZN7obj_mapI9func_decliE13obj_map_entry8get_dataEv(ptr noundef nonnull align 8 dereferenceable(16) %47)
  %49 = load ptr, ptr %5, align 8, !tbaa !1024
  %50 = call noundef zeroext i1 @_ZNK14core_hashtableIN7obj_mapI9func_decliE13obj_map_entryE8obj_hashINS2_8key_dataEE10default_eqIS5_EE6equalsERKS5_SB_(ptr noundef nonnull align 8 dereferenceable(20) %13, ptr noundef nonnull align 8 dereferenceable(12) %48, ptr noundef nonnull align 8 dereferenceable(12) %49)
  br i1 %50, label %51, label %53

51:                                               ; preds = %46
  %52 = load ptr, ptr %11, align 8, !tbaa !290
  store ptr %52, ptr %3, align 8
  store i32 1, ptr %12, align 4
  br label %98

53:                                               ; preds = %46, %41
  br label %60

54:                                               ; preds = %38
  %55 = load ptr, ptr %11, align 8, !tbaa !290
  %56 = call noundef zeroext i1 @_ZNK7obj_mapI9func_decliE13obj_map_entry7is_freeEv(ptr noundef nonnull align 8 dereferenceable(16) %55)
  br i1 %56, label %57, label %58

57:                                               ; preds = %54
  store ptr null, ptr %3, align 8
  store i32 1, ptr %12, align 4
  br label %98

58:                                               ; preds = %54
  br label %59

59:                                               ; preds = %58
  br label %60

60:                                               ; preds = %59, %53
  br label %61

61:                                               ; preds = %60
  %62 = load ptr, ptr %11, align 8, !tbaa !290
  %63 = getelementptr inbounds nuw %"class.obj_map<func_decl, int>::obj_map_entry", ptr %62, i32 1
  store ptr %63, ptr %11, align 8, !tbaa !290
  br label %34, !llvm.loop !1042

64:                                               ; preds = %34
  %65 = getelementptr inbounds nuw %class.core_hashtable.18, ptr %13, i32 0, i32 0
  %66 = load ptr, ptr %65, align 8, !tbaa !586
  store ptr %66, ptr %11, align 8, !tbaa !290
  br label %67

67:                                               ; preds = %94, %64
  %68 = load ptr, ptr %11, align 8, !tbaa !290
  %69 = load ptr, ptr %9, align 8, !tbaa !290
  %70 = icmp ne ptr %68, %69
  br i1 %70, label %71, label %97

71:                                               ; preds = %67
  %72 = load ptr, ptr %11, align 8, !tbaa !290
  %73 = call noundef zeroext i1 @_ZNK7obj_mapI9func_decliE13obj_map_entry7is_usedEv(ptr noundef nonnull align 8 dereferenceable(16) %72)
  br i1 %73, label %74, label %87

74:                                               ; preds = %71
  %75 = load ptr, ptr %11, align 8, !tbaa !290
  %76 = call noundef i32 @_ZNK7obj_mapI9func_decliE13obj_map_entry8get_hashEv(ptr noundef nonnull align 8 dereferenceable(16) %75)
  %77 = load i32, ptr %6, align 4, !tbaa !279
  %78 = icmp eq i32 %76, %77
  br i1 %78, label %79, label %86

79:                                               ; preds = %74
  %80 = load ptr, ptr %11, align 8, !tbaa !290
  %81 = call noundef nonnull align 8 dereferenceable(12) ptr @_ZN7obj_mapI9func_decliE13obj_map_entry8get_dataEv(ptr noundef nonnull align 8 dereferenceable(16) %80)
  %82 = load ptr, ptr %5, align 8, !tbaa !1024
  %83 = call noundef zeroext i1 @_ZNK14core_hashtableIN7obj_mapI9func_decliE13obj_map_entryE8obj_hashINS2_8key_dataEE10default_eqIS5_EE6equalsERKS5_SB_(ptr noundef nonnull align 8 dereferenceable(20) %13, ptr noundef nonnull align 8 dereferenceable(12) %81, ptr noundef nonnull align 8 dereferenceable(12) %82)
  br i1 %83, label %84, label %86

84:                                               ; preds = %79
  %85 = load ptr, ptr %11, align 8, !tbaa !290
  store ptr %85, ptr %3, align 8
  store i32 1, ptr %12, align 4
  br label %98

86:                                               ; preds = %79, %74
  br label %93

87:                                               ; preds = %71
  %88 = load ptr, ptr %11, align 8, !tbaa !290
  %89 = call noundef zeroext i1 @_ZNK7obj_mapI9func_decliE13obj_map_entry7is_freeEv(ptr noundef nonnull align 8 dereferenceable(16) %88)
  br i1 %89, label %90, label %91

90:                                               ; preds = %87
  store ptr null, ptr %3, align 8
  store i32 1, ptr %12, align 4
  br label %98

91:                                               ; preds = %87
  br label %92

92:                                               ; preds = %91
  br label %93

93:                                               ; preds = %92, %86
  br label %94

94:                                               ; preds = %93
  %95 = load ptr, ptr %11, align 8, !tbaa !290
  %96 = getelementptr inbounds nuw %"class.obj_map<func_decl, int>::obj_map_entry", ptr %95, i32 1
  store ptr %96, ptr %11, align 8, !tbaa !290
  br label %67, !llvm.loop !1043

97:                                               ; preds = %67
  store ptr null, ptr %3, align 8
  store i32 1, ptr %12, align 4
  br label %98

98:                                               ; preds = %97, %90, %84, %57, %51
  call void @llvm.lifetime.end.p0(i64 8, ptr %11) #3
  call void @llvm.lifetime.end.p0(i64 8, ptr %10) #3
  call void @llvm.lifetime.end.p0(i64 8, ptr %9) #3
  call void @llvm.lifetime.end.p0(i64 4, ptr %8) #3
  call void @llvm.lifetime.end.p0(i64 4, ptr %7) #3
  call void @llvm.lifetime.end.p0(i64 4, ptr %6) #3
  %99 = load ptr, ptr %3, align 8
  ret ptr %99
}

; Function Attrs: mustprogress nounwind uwtable
define linkonce_odr hidden void @_ZN7obj_mapI9func_decliE8key_dataC2EPS0_(ptr noundef nonnull align 8 dereferenceable(12) %0, ptr noundef %1) unnamed_addr #4 comdat align 2 {
  %3 = alloca ptr, align 8
  %4 = alloca ptr, align 8
  store ptr %0, ptr %3, align 8, !tbaa !1024
  store ptr %1, ptr %4, align 8, !tbaa !70
  %5 = load ptr, ptr %3, align 8
  %6 = getelementptr inbounds nuw %"struct.obj_map<func_decl, int>::key_data", ptr %5, i32 0, i32 0
  %7 = load ptr, ptr %4, align 8, !tbaa !70
  store ptr %7, ptr %6, align 8, !tbaa !1030
  %8 = getelementptr inbounds nuw %"struct.obj_map<func_decl, int>::key_data", ptr %5, i32 0, i32 1
  store i32 0, ptr %8, align 8, !tbaa !291
  ret void
}

; Function Attrs: mustprogress nounwind uwtable
define linkonce_odr hidden noundef nonnull align 8 dereferenceable(12) ptr @_ZN7obj_mapI9func_decliE13obj_map_entry8get_dataEv(ptr noundef nonnull align 8 dereferenceable(16) %0) #4 comdat align 2 {
  %2 = alloca ptr, align 8
  store ptr %0, ptr %2, align 8, !tbaa !290
  %3 = load ptr, ptr %2, align 8
  %4 = getelementptr inbounds nuw %"class.obj_map<func_decl, int>::obj_map_entry", ptr %3, i32 0, i32 0
  ret ptr %4
}

; Function Attrs: mustprogress uwtable
define linkonce_odr hidden noundef ptr @_ZNK7obj_mapI9func_decliE9find_coreEPS0_(ptr noundef nonnull align 8 dereferenceable(24) %0, ptr noundef %1) #5 comdat align 2 {
  %3 = alloca ptr, align 8
  %4 = alloca ptr, align 8
  %5 = alloca %"struct.obj_map<func_decl, int>::key_data", align 8
  store ptr %0, ptr %3, align 8, !tbaa !48
  store ptr %1, ptr %4, align 8, !tbaa !70
  %6 = load ptr, ptr %3, align 8
  %7 = getelementptr inbounds nuw %class.obj_map.17, ptr %6, i32 0, i32 0
  call void @llvm.lifetime.start.p0(i64 16, ptr %5) #3
  %8 = load ptr, ptr %4, align 8, !tbaa !70
  call void @_ZN7obj_mapI9func_decliE8key_dataC2EPS0_(ptr noundef nonnull align 8 dereferenceable(12) %5, ptr noundef %8)
  %9 = call noundef ptr @_ZNK14core_hashtableIN7obj_mapI9func_decliE13obj_map_entryE8obj_hashINS2_8key_dataEE10default_eqIS5_EE9find_coreERKS5_(ptr noundef nonnull align 8 dereferenceable(20) %7, ptr noundef nonnull align 8 dereferenceable(12) %5)
  call void @llvm.lifetime.end.p0(i64 16, ptr %5) #3
  ret ptr %9
}

; Function Attrs: mustprogress uwtable
define linkonce_odr hidden noundef zeroext i1 @_ZNK7obj_mapI9func_decliE4findEPS0_Ri(ptr noundef nonnull align 8 dereferenceable(24) %0, ptr noundef %1, ptr noundef nonnull align 4 dereferenceable(4) %2) #5 comdat align 2 {
  %4 = alloca ptr, align 8
  %5 = alloca ptr, align 8
  %6 = alloca ptr, align 8
  %7 = alloca ptr, align 8
  store ptr %0, ptr %4, align 8, !tbaa !48
  store ptr %1, ptr %5, align 8, !tbaa !70
  store ptr %2, ptr %6, align 8, !tbaa !286
  %8 = load ptr, ptr %4, align 8
  call void @llvm.lifetime.start.p0(i64 8, ptr %7) #3
  %9 = load ptr, ptr %5, align 8, !tbaa !70
  %10 = call noundef ptr @_ZNK7obj_mapI9func_decliE9find_coreEPS0_(ptr noundef nonnull align 8 dereferenceable(24) %8, ptr noundef %9)
  store ptr %10, ptr %7, align 8, !tbaa !290
  %11 = load ptr, ptr %7, align 8, !tbaa !290
  %12 = icmp ne ptr %11, null
  br i1 %12, label %13, label %19

13:                                               ; preds = %3
  %14 = load ptr, ptr %7, align 8, !tbaa !290
  %15 = call noundef nonnull align 8 dereferenceable(12) ptr @_ZN7obj_mapI9func_decliE13obj_map_entry8get_dataEv(ptr noundef nonnull align 8 dereferenceable(16) %14)
  %16 = getelementptr inbounds nuw %"struct.obj_map<func_decl, int>::key_data", ptr %15, i32 0, i32 1
  %17 = load i32, ptr %16, align 8, !tbaa !291
  %18 = load ptr, ptr %6, align 8, !tbaa !286
  store i32 %17, ptr %18, align 4, !tbaa !279
  br label %19

19:                                               ; preds = %13, %3
  %20 = load ptr, ptr %7, align 8, !tbaa !290
  %21 = icmp ne ptr null, %20
  call void @llvm.lifetime.end.p0(i64 8, ptr %7) #3
  ret i1 %21
}

; Function Attrs: mustprogress uwtable
define hidden noundef i32 @_ZN7datalog16relation_manager28get_requested_predicate_kindEP9func_decl(ptr noundef nonnull align 8 dereferenceable(200) %0, ptr noundef %1) #5 align 2 {
  %3 = alloca i32, align 4
  %4 = alloca ptr, align 8
  %5 = alloca ptr, align 8
  %6 = alloca i32, align 4
  %7 = alloca i32, align 4
  store ptr %0, ptr %4, align 8, !tbaa !3
  store ptr %1, ptr %5, align 8, !tbaa !70
  %8 = load ptr, ptr %4, align 8
  call void @llvm.lifetime.start.p0(i64 4, ptr %6) #3
  %9 = getelementptr inbounds nuw %"class.datalog::relation_manager", ptr %8, i32 0, i32 13
  %10 = load ptr, ptr %5, align 8, !tbaa !70
  %11 = call noundef zeroext i1 @_ZNK7obj_mapI9func_decliE4findEPS0_Ri(ptr noundef nonnull align 8 dereferenceable(24) %9, ptr noundef %10, ptr noundef nonnull align 4 dereferenceable(4) %6)
  br i1 %11, label %12, label %14

12:                                               ; preds = %2
  %13 = load i32, ptr %6, align 4, !tbaa !279
  store i32 %13, ptr %3, align 4
  store i32 1, ptr %7, align 4
  br label %15

14:                                               ; preds = %2
  store i32 -1, ptr %3, align 4
  store i32 1, ptr %7, align 4
  br label %15

15:                                               ; preds = %14, %12
  call void @llvm.lifetime.end.p0(i64 4, ptr %6) #3
  %16 = load i32, ptr %3, align 4
  ret i32 %16
}